target datalayout = "e-m:e-p270:32:32-p271:32:32-p272:64:64-i64:64-i128:128-f80:128-n8:16:32:64-S128"
target triple = "x86_64-pc-linux-gnu"

; Function Attrs: nounwind uwtable
define hidden i64 @mbedtls_mpi_core_sub(ptr noundef %0, ptr noundef %1, ptr noundef %2, i64 noundef %3) #0 {
  %5 = alloca ptr, align 8
  %6 = alloca ptr, align 8
  %7 = alloca ptr, align 8
  %8 = alloca i64, align 8
  %9 = alloca i64, align 8
  %10 = alloca i64, align 8
  %11 = alloca i64, align 8
  %12 = alloca i64, align 8
  store ptr %0, ptr %5, align 8, !tbaa !7
  store ptr %1, ptr %6, align 8, !tbaa !7
  store ptr %2, ptr %7, align 8, !tbaa !7
  store i64 %3, ptr %8, align 8, !tbaa !3
  call void @llvm.lifetime.start.p0(i64 8, ptr %9) #7
  store i64 0, ptr %9, align 8, !tbaa !3
  call void @llvm.lifetime.start.p0(i64 8, ptr %10) #7
  store i64 0, ptr %10, align 8, !tbaa !3
  br label %13

13:                                               ; preds = %52, %4
  %14 = load i64, ptr %10, align 8, !tbaa !3
  %15 = load i64, ptr %8, align 8, !tbaa !3
  %16 = icmp ult i64 %14, %15
  br i1 %16, label %18, label %17

17:                                               ; preds = %13
  call void @llvm.lifetime.end.p0(i64 8, ptr %10) #7
  br label %55

18:                                               ; preds = %13
  call void @llvm.lifetime.start.p0(i64 8, ptr %11) #7
  %19 = load ptr, ptr %6, align 8, !tbaa !7
  %20 = load i64, ptr %10, align 8, !tbaa !3
  %21 = getelementptr inbounds nuw i64, ptr %19, i64 %20
  %22 = load i64, ptr %21, align 8, !tbaa !3
  %23 = load i64, ptr %9, align 8, !tbaa !3
  %24 = icmp ult i64 %22, %23
  %25 = zext i1 %24 to i32
  %26 = sext i32 %25 to i64
  store i64 %26, ptr %11, align 8, !tbaa !3
  call void @llvm.lifetime.start.p0(i64 8, ptr %12) #7
  %27 = load ptr, ptr %6, align 8, !tbaa !7
  %28 = load i64, ptr %10, align 8, !tbaa !3
  %29 = getelementptr inbounds nuw i64, ptr %27, i64 %28
  %30 = load i64, ptr %29, align 8, !tbaa !3
  %31 = load i64, ptr %9, align 8, !tbaa !3
  %32 = sub i64 %30, %31
  store i64 %32, ptr %12, align 8, !tbaa !3
  %33 = load i64, ptr %12, align 8, !tbaa !3
  %34 = load ptr, ptr %7, align 8, !tbaa !7
  %35 = load i64, ptr %10, align 8, !tbaa !3
  %36 = getelementptr inbounds nuw i64, ptr %34, i64 %35
  %37 = load i64, ptr %36, align 8, !tbaa !3
  %38 = icmp ult i64 %33, %37
  %39 = zext i1 %38 to i32
  %40 = sext i32 %39 to i64
  %41 = load i64, ptr %11, align 8, !tbaa !3
  %42 = add i64 %40, %41
  store i64 %42, ptr %9, align 8, !tbaa !3
  %43 = load i64, ptr %12, align 8, !tbaa !3
  %44 = load ptr, ptr %7, align 8, !tbaa !7
  %45 = load i64, ptr %10, align 8, !tbaa !3
  %46 = getelementptr inbounds nuw i64, ptr %44, i64 %45
  %47 = load i64, ptr %46, align 8, !tbaa !3
  %48 = sub i64 %43, %47
  %49 = load ptr, ptr %5, align 8, !tbaa !7
  %50 = load i64, ptr %10, align 8, !tbaa !3
  %51 = getelementptr inbounds nuw i64, ptr %49, i64 %50
  store i64 %48, ptr %51, align 8, !tbaa !3
  call void @llvm.lifetime.end.p0(i64 8, ptr %12) #7
  call void @llvm.lifetime.end.p0(i64 8, ptr %11) #7
  br label %52

52:                                               ; preds = %18
  %53 = load i64, ptr %10, align 8, !tbaa !3
  %54 = add i64 %53, 1
  store i64 %54, ptr %10, align 8, !tbaa !3
  br label %13, !llvm.loop !38

55:                                               ; preds = %17
  %56 = load i64, ptr %9, align 8, !tbaa !3
  call void @llvm.lifetime.end.p0(i64 8, ptr %9) #7
  ret i64 %56
}