; Function Attrs: nofree norecurse nosync nounwind memory(argmem: readwrite) uwtable
define hidden range(i64 0, 3) i64 @mbedtls_mpi_core_sub(ptr noundef writeonly captures(none) %0, ptr noundef readonly captures(none) %1, ptr noundef readonly captures(none) %2, i64 noundef %3) local_unnamed_addr #4 {
  %.not = icmp eq i64 %3, 0
  br i1 %.not, label %._crit_edge, label %.lr.ph

._crit_edge:                                      ; preds = %.lr.ph, %4
  %.0.lcssa = phi i64 [ 0, %4 ], [ %14, %.lr.ph ]
  ret i64 %.0.lcssa

.lr.ph:                                           ; preds = %4, %.lr.ph
  %.020 = phi i64 [ %14, %.lr.ph ], [ 0, %4 ]
  %.01819 = phi i64 [ %17, %.lr.ph ], [ 0, %4 ]
  %5 = getelementptr inbounds nuw i64, ptr %1, i64 %.01819
  %6 = load i64, ptr %5, align 8, !tbaa !3
  %7 = icmp ult i64 %6, %.020
  %8 = zext i1 %7 to i64
  %9 = sub i64 %6, %.020
  %10 = getelementptr inbounds nuw i64, ptr %2, i64 %.01819
  %11 = load i64, ptr %10, align 8, !tbaa !3
  %12 = icmp ult i64 %9, %11
  %13 = zext i1 %12 to i64
  %14 = add nuw nsw i64 %13, %8
  %15 = sub i64 %9, %11
  %16 = getelementptr inbounds nuw i64, ptr %0, i64 %.01819
  store i64 %15, ptr %16, align 8, !tbaa !3
  %17 = add nuw i64 %.01819, 1
  %exitcond.not = icmp eq i64 %17, %3
  br i1 %exitcond.not, label %._crit_edge, label %.lr.ph, !llvm.loop !30
}